; Function Attrs: mustprogress nounwind uwtable
define hidden void @_ZN8GraphKit19set_all_memory_callEP4Nodeb(ptr nocapture noundef nonnull readonly align 8 dereferenceable(84) %0, ptr noundef %1, i1 noundef zeroext %2) local_unnamed_addr #0 align 2 {
  %4 = getelementptr inbounds i8, ptr %0, i64 32
  %5 = load ptr, ptr %4, align 8
  %6 = tail call align 8 ptr @llvm.threadlocal.address.p0(ptr align 8 @_ZN6Thread12_thr_currentE)
  %7 = load ptr, ptr %6, align 8
  %8 = getelementptr inbounds i8, ptr %7, i64 1808
  %9 = load ptr, ptr %8, align 8
  %10 = getelementptr inbounds i8, ptr %9, i64 128
  %11 = load ptr, ptr %10, align 8
  %12 = getelementptr inbounds i8, ptr %11, i64 728
  %13 = load ptr, ptr %12, align 8
  %14 = getelementptr inbounds i8, ptr %13, i64 40
  %15 = load ptr, ptr %14, align 8
  %16 = getelementptr inbounds i8, ptr %13, i64 32
  %17 = load ptr, ptr %16, align 8
  %18 = ptrtoint ptr %15 to i64
  %19 = ptrtoint ptr %17 to i64
  %20 = sub i64 %18, %19
  %.not.i.i.i = icmp ult i64 %20, 64
  br i1 %.not.i.i.i, label %23, label %21

21:                                               ; preds = %3
  %22 = getelementptr inbounds i8, ptr %17, i64 64
  store ptr %22, ptr %16, align 8
  br label %_ZN4NodenwEm.exit

23:                                               ; preds = %3
  %24 = tail call noundef ptr @_ZN5Arena4growEmN17AllocFailStrategy13AllocFailEnumE(ptr noundef nonnull align 8 dereferenceable(48) %13, i64 noundef 64, i32 noundef 0) #13
  br label %_ZN4NodenwEm.exit

_ZN4NodenwEm.exit:                                ; preds = %21, %23
  %.0.i.i.i = phi ptr [ %17, %21 ], [ %24, %23 ]
  %25 = icmp eq ptr %.0.i.i.i, null
  br i1 %25, label %_ZN8ProjNodeC2EP4Nodejb.exit, label %26

26:                                               ; preds = %_ZN4NodenwEm.exit
  %27 = zext i1 %2 to i8
  tail call void @_ZN4NodeC2EPS_(ptr noundef nonnull align 8 dereferenceable(52) %.0.i.i.i, ptr noundef %1) #13
  store ptr getelementptr inbounds inrange(-16, 192) (i8, ptr @_ZTV8ProjNode, i64 16), ptr %.0.i.i.i, align 8
  %28 = getelementptr inbounds i8, ptr %.0.i.i.i, i64 52
  store i32 2, ptr %28, align 4
  %29 = getelementptr inbounds i8, ptr %.0.i.i.i, i64 56
  store i8 %27, ptr %29, align 8
  %30 = getelementptr inbounds i8, ptr %.0.i.i.i, i64 44
  store i32 8, ptr %30, align 4
  %31 = getelementptr inbounds i8, ptr %1, i64 44
  %32 = load i32, ptr %31, align 4
  %33 = and i32 %32, 15
  %34 = icmp eq i32 %33, 9
  br i1 %34, label %35, label %_ZN8ProjNodeC2EP4Nodejb.exit

35:                                               ; preds = %26
  %36 = getelementptr inbounds i8, ptr %.0.i.i.i, i64 48
  %37 = load i32, ptr %36, align 8
  %38 = or i32 %37, 64
  store i32 %38, ptr %36, align 8
  br label %_ZN8ProjNodeC2EP4Nodejb.exit

_ZN8ProjNodeC2EP4Nodejb.exit:                     ; preds = %35, %26, %_ZN4NodenwEm.exit
  %39 = load ptr, ptr %5, align 8
  %40 = load ptr, ptr %39, align 8
  %41 = tail call noundef ptr %40(ptr noundef nonnull align 8 dereferenceable(2400) %5, ptr noundef %.0.i.i.i) #13
  tail call void @_ZN8GraphKit14set_all_memoryEP4Node(ptr noundef nonnull align 8 dereferenceable(84) %0, ptr noundef %41)
  ret void
}